target datalayout = "e-m:e-p270:32:32-p271:32:32-p272:64:64-i64:64-i128:128-f80:128-n8:16:32:64-S128"
target triple = "x86_64-pc-linux-gnu"

%"struct.std::pair" = type { i32, i32 }
%"class.open_spiel::phantom_go::PhantomGoBoard" = type <{ %"struct.std::array.3", [2 x i8], %"struct.std::array.5", i8, i8, [2 x i8], i32, %"struct.std::array.6", [2 x i8], %"struct.std::array.7", i64, %"struct.std::array.8", i32, i32, i16, [6 x i8] }>
%"struct.std::array.3" = type { [2 x %"struct.std::array.4"] }
%"struct.std::array.4" = type { [361 x i8] }
%"struct.std::array.5" = type { [2 x i32] }
%"struct.std::array.6" = type { [441 x %"struct.open_spiel::phantom_go::PhantomGoBoard::Vertex"] }
%"struct.open_spiel::phantom_go::PhantomGoBoard::Vertex" = type { i16, i16, i8 }
%"struct.std::array.7" = type { [441 x %"struct.open_spiel::phantom_go::PhantomGoBoard::Chain"] }
%"struct.open_spiel::phantom_go::PhantomGoBoard::Chain" = type { i32, i16, i16, i16 }
%"struct.std::array.8" = type { [4 x i16] }

; Function Attrs: mustprogress nounwind uwtable
define linkonce_odr void @_ZNSt4pairIiiEC2IiiTnNSt9enable_ifIXaaclsr5_PCCPE22_MoveConstructiblePairIT_T0_EEclsr5_PCCPE30_ImplicitlyMoveConvertiblePairIS3_S4_EEEbE4typeELb1EEEOS3_OS4_(ptr noundef nonnull align 4 dereferenceable(8) %0, ptr noundef nonnull align 4 dereferenceable(4) %1, ptr noundef nonnull align 4 dereferenceable(4) %2) unnamed_addr #4 comdat align 2 {
  %4 = alloca ptr, align 8
  %5 = alloca ptr, align 8
  %6 = alloca ptr, align 8
  store ptr %0, ptr %4, align 8
  store ptr %1, ptr %5, align 8
  store ptr %2, ptr %6, align 8
  %7 = load ptr, ptr %4, align 8
  %8 = getelementptr inbounds nuw %"struct.std::pair", ptr %7, i32 0, i32 0
  %9 = load ptr, ptr %5, align 8
  %10 = load i32, ptr %9, align 4
  store i32 %10, ptr %8, align 4
  %11 = getelementptr inbounds nuw %"struct.std::pair", ptr %7, i32 0, i32 1
  %12 = load ptr, ptr %6, align 8
  %13 = load i32, ptr %12, align 4
  store i32 %13, ptr %11, align 4
  ret void
}

; Function Attrs: mustprogress uwtable
define linkonce_odr i64 @_ZSt9make_pairIiiESt4pairINSt25__strip_reference_wrapperINSt5decayIT_E4typeEE6__typeENS1_INS2_IT0_E4typeEE6__typeEEOS3_OS8_(ptr noundef nonnull align 4 dereferenceable(4) %0, ptr noundef nonnull align 4 dereferenceable(4) %1) #5 comdat {
  %3 = alloca %"struct.std::pair", align 4
  %4 = alloca ptr, align 8
  %5 = alloca ptr, align 8
  store ptr %0, ptr %4, align 8
  store ptr %1, ptr %5, align 8
  %6 = load ptr, ptr %4, align 8
  %7 = load ptr, ptr %5, align 8
  call void @_ZNSt4pairIiiEC2IiiTnNSt9enable_ifIXaaclsr5_PCCPE22_MoveConstructiblePairIT_T0_EEclsr5_PCCPE30_ImplicitlyMoveConvertiblePairIS3_S4_EEEbE4typeELb1EEEOS3_OS4_(ptr noundef nonnull align 4 dereferenceable(8) %3, ptr noundef nonnull align 4 dereferenceable(4) %6, ptr noundef nonnull align 4 dereferenceable(4) %7)
  %8 = load i64, ptr %3, align 4
  ret i64 %8
}

; Function Attrs: mustprogress nounwind uwtable
define linkonce_odr noundef i32 @_ZNK10open_spiel10phantom_go14PhantomGoBoard10board_sizeEv(ptr noundef nonnull align 8 dereferenceable(8706) %0) #4 comdat align 2 {
  %2 = alloca ptr, align 8
  store ptr %0, ptr %2, align 8
  %3 = load ptr, ptr %2, align 8
  %4 = getelementptr inbounds nuw %"class.open_spiel::phantom_go::PhantomGoBoard", ptr %3, i32 0, i32 12
  %5 = load i32, ptr %4, align 8
  ret i32 %5
}

; Function Attrs: mustprogress uwtable
define i64 @_ZN10open_spiel10phantom_go21VirtualPointTo2DPointEt(i16 noundef zeroext %0) #5 {
  %2 = alloca %"struct.std::pair", align 4
  %3 = alloca i16, align 2
  %4 = alloca i32, align 4
  %5 = alloca i32, align 4
  %6 = alloca i32, align 4
  %7 = alloca i32, align 4
  %8 = alloca i32, align 4
  %9 = alloca i32, align 4
  store i16 %0, ptr %3, align 2
  %10 = load i16, ptr %3, align 2
  %11 = zext i16 %10 to i32
  %12 = icmp eq i32 %11, 0
  br i1 %12, label %17, label %13

13:                                               ; preds = %1
  %14 = load i16, ptr %3, align 2
  %15 = zext i16 %14 to i32
  %16 = icmp eq i32 %15, 442
  br i1 %16, label %17, label %19

17:                                               ; preds = %13, %1
  store i32 -1, ptr %4, align 4
  store i32 -1, ptr %5, align 4
  %18 = call i64 @_ZSt9make_pairIiiESt4pairINSt25__strip_reference_wrapperINSt5decayIT_E4typeEE6__typeENS1_INS2_IT0_E4typeEE6__typeEEOS3_OS8_(ptr noundef nonnull align 4 dereferenceable(4) %4, ptr noundef nonnull align 4 dereferenceable(4) %5)
  store i64 %18, ptr %2, align 4
  br label %31

19:                                               ; preds = %13
  %20 = load i16, ptr %3, align 2
  %21 = zext i16 %20 to i32
  %22 = sdiv i32 %21, 21
  store i32 %22, ptr %6, align 4
  %23 = load i16, ptr %3, align 2
  %24 = zext i16 %23 to i32
  %25 = srem i32 %24, 21
  store i32 %25, ptr %7, align 4
  %26 = load i32, ptr %6, align 4
  %27 = sub nsw i32 %26, 1
  store i32 %27, ptr %8, align 4
  %28 = load i32, ptr %7, align 4
  %29 = sub nsw i32 %28, 1
  store i32 %29, ptr %9, align 4
  %30 = call i64 @_ZSt9make_pairIiiESt4pairINSt25__strip_reference_wrapperINSt5decayIT_E4typeEE6__typeENS1_INS2_IT0_E4typeEE6__typeEEOS3_OS8_(ptr noundef nonnull align 4 dereferenceable(4) %8, ptr noundef nonnull align 4 dereferenceable(4) %9)
  store i64 %30, ptr %2, align 4
  br label %31

31:                                               ; preds = %19, %17
  %32 = load i64, ptr %2, align 4
  ret i64 %32
}

; Function Attrs: mustprogress uwtable
define noundef zeroext i1 @_ZNK10open_spiel10phantom_go14PhantomGoBoard13IsInBoardAreaEt(ptr noundef nonnull align 8 dereferenceable(8706) %0, i16 noundef zeroext %1) #5 align 2 {
  %3 = alloca ptr, align 8
  %4 = alloca i16, align 2
  %5 = alloca %"struct.std::pair", align 4
  store ptr %0, ptr %3, align 8
  store i16 %1, ptr %4, align 2
  %6 = load ptr, ptr %3, align 8
  %7 = load i16, ptr %4, align 2
  %8 = call i64 @_ZN10open_spiel10phantom_go21VirtualPointTo2DPointEt(i16 noundef zeroext %7)
  store i64 %8, ptr %5, align 4
  %9 = getelementptr inbounds nuw %"struct.std::pair", ptr %5, i32 0, i32 0
  %10 = load i32, ptr %9, align 4
  %11 = icmp sge i32 %10, 0
  br i1 %11, label %12, label %26

12:                                               ; preds = %2
  %13 = getelementptr inbounds nuw %"struct.std::pair", ptr %5, i32 0, i32 0
  %14 = load i32, ptr %13, align 4
  %15 = call noundef i32 @_ZNK10open_spiel10phantom_go14PhantomGoBoard10board_sizeEv(ptr noundef nonnull align 8 dereferenceable(8706) %6)
  %16 = icmp slt i32 %14, %15
  br i1 %16, label %17, label %26

17:                                               ; preds = %12
  %18 = getelementptr inbounds nuw %"struct.std::pair", ptr %5, i32 0, i32 1
  %19 = load i32, ptr %18, align 4
  %20 = icmp sge i32 %19, 0
  br i1 %20, label %21, label %26

21:                                               ; preds = %17
  %22 = getelementptr inbounds nuw %"struct.std::pair", ptr %5, i32 0, i32 1
  %23 = load i32, ptr %22, align 4
  %24 = call noundef i32 @_ZNK10open_spiel10phantom_go14PhantomGoBoard10board_sizeEv(ptr noundef nonnull align 8 dereferenceable(8706) %6)
  %25 = icmp slt i32 %23, %24
  br label %26

26:                                               ; preds = %21, %17, %12, %2
  %27 = phi i1 [ false, %17 ], [ false, %12 ], [ false, %2 ], [ %25, %21 ]
  ret i1 %27
}