; Function Attrs: mustprogress nofree norecurse nosync nounwind willreturn memory(argmem: read) uwtable
define noundef zeroext i1 @_ZNK10open_spiel10phantom_go14PhantomGoBoard13IsInBoardAreaEt(ptr nocapture noundef nonnull readonly align 8 dereferenceable(8706) %0, i16 noundef zeroext %1) local_unnamed_addr #5 align 2 {
  switch i16 %1, label %_ZN10open_spiel10phantom_go21VirtualPointTo2DPointEt.exit [
    i16 442, label %_ZN10open_spiel10phantom_go21VirtualPointTo2DPointEt.exit.thread
    i16 0, label %_ZN10open_spiel10phantom_go21VirtualPointTo2DPointEt.exit.thread
  ]

_ZN10open_spiel10phantom_go21VirtualPointTo2DPointEt.exit: ; preds = %2
  %.not = icmp ult i16 %1, 21
  br i1 %.not, label %_ZN10open_spiel10phantom_go21VirtualPointTo2DPointEt.exit.thread, label %3

3:                                                ; preds = %_ZN10open_spiel10phantom_go21VirtualPointTo2DPointEt.exit
  %4 = udiv i16 %1, 21
  %.zext.i = zext nneg i16 %4 to i32
  %5 = urem i16 %1, 21
  %.zext16.i = zext nneg i16 %5 to i32
  %6 = getelementptr inbounds nuw i8, ptr %0, i64 8696
  %7 = load i32, ptr %6, align 8
  %8 = icmp sge i32 %7, %.zext.i
  %9 = icmp ne i16 %5, 0
  %or.cond = and i1 %9, %8
  %10 = icmp sge i32 %7, %.zext16.i
  %spec.select = select i1 %or.cond, i1 %10, i1 false
  br label %_ZN10open_spiel10phantom_go21VirtualPointTo2DPointEt.exit.thread

_ZN10open_spiel10phantom_go21VirtualPointTo2DPointEt.exit.thread: ; preds = %3, %2, %2, %_ZN10open_spiel10phantom_go21VirtualPointTo2DPointEt.exit
  %11 = phi i1 [ false, %_ZN10open_spiel10phantom_go21VirtualPointTo2DPointEt.exit ], [ false, %2 ], [ false, %2 ], [ %spec.select, %3 ]
  ret i1 %11
}